; Function Attrs: mustprogress nofree nounwind willreturn memory(readwrite, argmem: none) uwtable
define noalias noundef ptr @KINGetLinReturnFlagName(i64 noundef %0) local_unnamed_addr #7 {
  %2 = tail call noalias dereferenceable_or_null(30) ptr @malloc(i64 noundef 30) #14
  switch i64 %0, label %12 [
    i64 0, label %3
    i64 -1, label %4
    i64 -2, label %5
    i64 -3, label %6
    i64 -4, label %7
    i64 -5, label %8
    i64 -6, label %9
    i64 -7, label %10
    i64 -8, label %11
  ]

3:                                                ; preds = %1
  tail call void @llvm.memcpy.p0.p0.i64(ptr noundef nonnull align 1 dereferenceable(14) %2, ptr noundef nonnull align 1 dereferenceable(14) @.str.16, i64 14, i1 false)
  br label %13

4:                                                ; preds = %1
  tail call void @llvm.memcpy.p0.p0.i64(ptr noundef nonnull align 1 dereferenceable(15) %2, ptr noundef nonnull align 1 dereferenceable(15) @.str.17, i64 15, i1 false)
  br label %13

5:                                                ; preds = %1
  tail call void @llvm.memcpy.p0.p0.i64(ptr noundef nonnull align 1 dereferenceable(16) %2, ptr noundef nonnull align 1 dereferenceable(16) @.str.18, i64 16, i1 false)
  br label %13

6:                                                ; preds = %1
  tail call void @llvm.memcpy.p0.p0.i64(ptr noundef nonnull align 1 dereferenceable(16) %2, ptr noundef nonnull align 1 dereferenceable(16) @.str.19, i64 16, i1 false)
  br label %13

7:                                                ; preds = %1
  tail call void @llvm.memcpy.p0.p0.i64(ptr noundef nonnull align 1 dereferenceable(15) %2, ptr noundef nonnull align 1 dereferenceable(15) @.str.20, i64 15, i1 false)
  br label %13

8:                                                ; preds = %1
  tail call void @llvm.memcpy.p0.p0.i64(ptr noundef nonnull align 1 dereferenceable(16) %2, ptr noundef nonnull align 1 dereferenceable(16) @.str.21, i64 16, i1 false)
  br label %13

9:                                                ; preds = %1
  tail call void @llvm.memcpy.p0.p0.i64(ptr noundef nonnull align 1 dereferenceable(18) %2, ptr noundef nonnull align 1 dereferenceable(18) @.str.22, i64 18, i1 false)
  br label %13

10:                                               ; preds = %1
  tail call void @llvm.memcpy.p0.p0.i64(ptr noundef nonnull align 1 dereferenceable(18) %2, ptr noundef nonnull align 1 dereferenceable(18) @.str.23, i64 18, i1 false)
  br label %13

11:                                               ; preds = %1
  tail call void @llvm.memcpy.p0.p0.i64(ptr noundef nonnull align 1 dereferenceable(17) %2, ptr noundef nonnull align 1 dereferenceable(17) @.str.24, i64 17, i1 false)
  br label %13

12:                                               ; preds = %1
  tail call void @llvm.memcpy.p0.p0.i64(ptr noundef nonnull align 1 dereferenceable(5) %2, ptr noundef nonnull align 1 dereferenceable(5) @.str.25, i64 5, i1 false)
  br label %13

13:                                               ; preds = %12, %11, %10, %9, %8, %7, %6, %5, %4, %3
  ret ptr %2
}